target datalayout = "e-m:e-p270:32:32-p271:32:32-p272:64:64-i64:64-i128:128-f80:128-n8:16:32:64-S128"
target triple = "x86_64-pc-linux-gnu"

%struct.lua_TValue = type { %union.Value, [1 x i32], i32 }
%union.Value = type { ptr }
%struct.lua_State = type { i8, i8, i8, i8, i8, i8, i8, ptr, ptr, ptr, ptr, ptr, ptr, ptr, ptr, i32, i32, i16, i16, i32, ptr, ptr, ptr, ptr, ptr }
%struct.global_State = type { %struct.stringtable, ptr, ptr, i8, i8, ptr, ptr, ptr, i64, i64, i32, i32, i32, [40 x ptr], [40 x ptr], ptr, ptr, ptr, [256 x i64], ptr, %struct.UpVal, [11 x ptr], [11 x ptr], [21 x ptr], %struct.lua_TValue, %struct.lua_TValue, i32, ptr, i64, [4 x i64], %struct.lua_Callbacks, %struct.lua_ExecutionCallbacks, [128 x ptr], [128 x ptr], [128 x ptr], %struct.GCStats }
%struct.stringtable = type { ptr, i32, i32 }
%struct.UpVal = type { i8, i8, i8, i8, ptr, %union.anon.3 }
%union.anon.3 = type { %struct.anon.4 }
%struct.anon.4 = type { ptr, ptr, ptr }
%struct.lua_Callbacks = type { ptr, ptr, ptr, ptr, ptr, ptr, ptr, ptr, ptr, ptr }
%struct.lua_ExecutionCallbacks = type { ptr, ptr, ptr, ptr, ptr, ptr, ptr }
%struct.GCStats = type { [32 x i32], i32, i32, i64, i64, i64, double, double, double }
%struct.TString = type { i8, i8, i8, i16, ptr, i32, i32, [1 x i8] }

; Function Attrs: mustprogress uwtable
define dso_local noundef ptr @_Z16lua_namecallatomP9lua_StatePi(ptr noundef %0, ptr noundef %1) #0 {
  %3 = alloca ptr, align 8
  %4 = alloca ptr, align 8
  %5 = alloca ptr, align 8
  %6 = alloca ptr, align 8
  %7 = alloca i32, align 4
  store ptr %0, ptr %4, align 8, !tbaa !4
  store ptr %1, ptr %5, align 8, !tbaa !65
  call void @llvm.lifetime.start.p0(i64 8, ptr %6) #11
  %8 = load ptr, ptr %4, align 8, !tbaa !4
  %9 = getelementptr inbounds nuw %struct.lua_State, ptr %8, i32 0, i32 23
  %10 = load ptr, ptr %9, align 8, !tbaa !75
  store ptr %10, ptr %6, align 8, !tbaa !72
  %11 = load ptr, ptr %6, align 8, !tbaa !72
  %12 = icmp ne ptr %11, null
  br i1 %12, label %14, label %13

13:                                               ; preds = %2
  store ptr null, ptr %3, align 8
  store i32 1, ptr %7, align 4
  br label %63

14:                                               ; preds = %2
  %15 = load ptr, ptr %5, align 8, !tbaa !65
  %16 = icmp ne ptr %15, null
  br i1 %16, label %17, label %59

17:                                               ; preds = %14
  %18 = load ptr, ptr %6, align 8, !tbaa !72
  %19 = getelementptr inbounds nuw %struct.TString, ptr %18, i32 0, i32 3
  %20 = load i16, ptr %19, align 4, !tbaa !73
  %21 = sext i16 %20 to i32
  %22 = icmp eq i32 %21, -32768
  br i1 %22, label %23, label %53

23:                                               ; preds = %17
  %24 = load ptr, ptr %4, align 8, !tbaa !4
  %25 = getelementptr inbounds nuw %struct.lua_State, ptr %24, i32 0, i32 9
  %26 = load ptr, ptr %25, align 8, !tbaa !33
  %27 = getelementptr inbounds nuw %struct.global_State, ptr %26, i32 0, i32 30
  %28 = getelementptr inbounds nuw %struct.lua_Callbacks, ptr %27, i32 0, i32 4
  %29 = load ptr, ptr %28, align 8, !tbaa !74
  %30 = icmp ne ptr %29, null
  br i1 %30, label %31, label %47

31:                                               ; preds = %23
  %32 = load ptr, ptr %4, align 8, !tbaa !4
  %33 = getelementptr inbounds nuw %struct.lua_State, ptr %32, i32 0, i32 9
  %34 = load ptr, ptr %33, align 8, !tbaa !33
  %35 = getelementptr inbounds nuw %struct.global_State, ptr %34, i32 0, i32 30
  %36 = getelementptr inbounds nuw %struct.lua_Callbacks, ptr %35, i32 0, i32 4
  %37 = load ptr, ptr %36, align 8, !tbaa !74
  %38 = load ptr, ptr %6, align 8, !tbaa !72
  %39 = getelementptr inbounds nuw %struct.TString, ptr %38, i32 0, i32 7
  %40 = getelementptr inbounds [1 x i8], ptr %39, i64 0, i64 0
  %41 = load ptr, ptr %6, align 8, !tbaa !72
  %42 = getelementptr inbounds nuw %struct.TString, ptr %41, i32 0, i32 6
  %43 = load i32, ptr %42, align 4, !tbaa !70
  %44 = zext i32 %43 to i64
  %45 = call noundef signext i16 %37(ptr noundef %40, i64 noundef %44)
  %46 = sext i16 %45 to i32
  br label %48

47:                                               ; preds = %23
  br label %48

48:                                               ; preds = %47, %31
  %49 = phi i32 [ %46, %31 ], [ -1, %47 ]
  %50 = trunc i32 %49 to i16
  %51 = load ptr, ptr %6, align 8, !tbaa !72
  %52 = getelementptr inbounds nuw %struct.TString, ptr %51, i32 0, i32 3
  store i16 %50, ptr %52, align 4, !tbaa !73
  br label %53

53:                                               ; preds = %48, %17
  %54 = load ptr, ptr %6, align 8, !tbaa !72
  %55 = getelementptr inbounds nuw %struct.TString, ptr %54, i32 0, i32 3
  %56 = load i16, ptr %55, align 4, !tbaa !73
  %57 = sext i16 %56 to i32
  %58 = load ptr, ptr %5, align 8, !tbaa !65
  store i32 %57, ptr %58, align 4, !tbaa !9
  br label %59

59:                                               ; preds = %53, %14
  %60 = load ptr, ptr %6, align 8, !tbaa !72
  %61 = getelementptr inbounds nuw %struct.TString, ptr %60, i32 0, i32 7
  %62 = getelementptr inbounds [1 x i8], ptr %61, i64 0, i64 0
  store ptr %62, ptr %3, align 8
  store i32 1, ptr %7, align 4
  br label %63

63:                                               ; preds = %59, %13
  call void @llvm.lifetime.end.p0(i64 8, ptr %6) #11
  %64 = load ptr, ptr %3, align 8
  ret ptr %64
}