; Function Attrs: mustprogress uwtable
define dso_local noundef ptr @_Z16lua_namecallatomP9lua_StatePi(ptr noundef readonly captures(none) %0, ptr noundef writeonly %1) local_unnamed_addr #3 {
  %3 = getelementptr inbounds nuw i8, ptr %0, i64 112
  %4 = load ptr, ptr %3, align 8, !tbaa !65
  %.not = icmp eq ptr %4, null
  br i1 %.not, label %28, label %5

5:                                                ; preds = %2
  %.not16 = icmp eq ptr %1, null
  br i1 %.not16, label %26, label %6

6:                                                ; preds = %5
  %7 = getelementptr inbounds nuw i8, ptr %4, i64 4
  %8 = load i16, ptr %7, align 4, !tbaa !63
  %9 = icmp eq i16 %8, -32768
  br i1 %9, label %10, label %23

10:                                               ; preds = %6
  %11 = getelementptr inbounds nuw i8, ptr %0, i64 24
  %12 = load ptr, ptr %11, align 8, !tbaa !30
  %13 = getelementptr inbounds nuw i8, ptr %12, i64 3320
  %14 = load ptr, ptr %13, align 8, !tbaa !64
  %.not17 = icmp eq ptr %14, null
  br i1 %.not17, label %21, label %15

15:                                               ; preds = %10
  %16 = getelementptr inbounds nuw i8, ptr %4, i64 24
  %17 = getelementptr inbounds nuw i8, ptr %4, i64 20
  %18 = load i32, ptr %17, align 4, !tbaa !61
  %19 = zext i32 %18 to i64
  %20 = tail call noundef signext i16 %14(ptr noundef nonnull %16, i64 noundef %19)
  br label %21

21:                                               ; preds = %10, %15
  %22 = phi i16 [ %20, %15 ], [ -1, %10 ]
  store i16 %22, ptr %7, align 4, !tbaa !63
  br label %23

23:                                               ; preds = %21, %6
  %24 = phi i16 [ %22, %21 ], [ %8, %6 ]
  %25 = sext i16 %24 to i32
  store i32 %25, ptr %1, align 4, !tbaa !22
  br label %26

26:                                               ; preds = %23, %5
  %27 = getelementptr inbounds nuw i8, ptr %4, i64 24
  br label %28

28:                                               ; preds = %2, %26
  %.0 = phi ptr [ %27, %26 ], [ null, %2 ]
  ret ptr %.0
}